target datalayout = "e-m:e-p270:32:32-p271:32:32-p272:64:64-i64:64-i128:128-f80:128-n8:16:32:64-S128"
target triple = "x86_64-pc-linux-gnu"

%"struct.duckdb_miniz::mz_zip_archive" = type { i64, i64, i32, i32, i32, i32, i64, ptr, ptr, ptr, ptr, ptr, ptr, ptr, ptr, ptr }
%"struct.duckdb_miniz::mz_zip_internal_state_tag" = type { %"struct.duckdb_miniz::mz_zip_array", %"struct.duckdb_miniz::mz_zip_array", %"struct.duckdb_miniz::mz_zip_array", i32, i32, i32, ptr, i64, ptr, i64, i64 }
%"struct.duckdb_miniz::mz_zip_array" = type { ptr, i64, i64, i32 }

; Function Attrs: alwaysinline mustprogress nounwind uwtable
define internal noundef i32 @_ZN12duckdb_minizL16mz_zip_set_errorEPNS_14mz_zip_archiveENS_12mz_zip_errorE(ptr noundef %0, i32 noundef %1) #8 {
  %3 = alloca ptr, align 8
  %4 = alloca i32, align 4
  store ptr %0, ptr %3, align 8, !tbaa !19
  store i32 %1, ptr %4, align 4, !tbaa !242
  %5 = load ptr, ptr %3, align 8, !tbaa !19
  %6 = icmp ne ptr %5, null
  br i1 %6, label %7, label %11

7:                                                ; preds = %2
  %8 = load i32, ptr %4, align 4, !tbaa !242
  %9 = load ptr, ptr %3, align 8, !tbaa !19
  %10 = getelementptr inbounds nuw %"struct.duckdb_miniz::mz_zip_archive", ptr %9, i32 0, i32 5
  store i32 %8, ptr %10, align 4, !tbaa !236
  br label %11

11:                                               ; preds = %7, %2
  ret i32 0
}

; Function Attrs: mustprogress uwtable
define noundef i32 @_ZN12duckdb_miniz21mz_zip_writer_init_v2EPNS_14mz_zip_archiveEmj(ptr noundef %0, i64 noundef %1, i32 noundef %2) #5 {
  %4 = alloca i32, align 4
  %5 = alloca ptr, align 8
  %6 = alloca i64, align 8
  %7 = alloca i32, align 4
  %8 = alloca i32, align 4
  %9 = alloca i32, align 4
  store ptr %0, ptr %5, align 8, !tbaa !19
  store i64 %1, ptr %6, align 8, !tbaa !3
  store i32 %2, ptr %7, align 4, !tbaa !10
  call void @llvm.lifetime.start.p0(i64 4, ptr %8) #11
  %10 = load i32, ptr %7, align 4, !tbaa !10
  %11 = and i32 %10, 16384
  %12 = icmp ne i32 %11, 0
  %13 = zext i1 %12 to i32
  store i32 %13, ptr %8, align 4, !tbaa !10
  %14 = load ptr, ptr %5, align 8, !tbaa !19
  %15 = icmp ne ptr %14, null
  br i1 %15, label %16, label %31

16:                                               ; preds = %3
  %17 = load ptr, ptr %5, align 8, !tbaa !19
  %18 = getelementptr inbounds nuw %"struct.duckdb_miniz::mz_zip_archive", ptr %17, i32 0, i32 15
  %19 = load ptr, ptr %18, align 8, !tbaa !227
  %20 = icmp ne ptr %19, null
  br i1 %20, label %31, label %21

21:                                               ; preds = %16
  %22 = load ptr, ptr %5, align 8, !tbaa !19
  %23 = getelementptr inbounds nuw %"struct.duckdb_miniz::mz_zip_archive", ptr %22, i32 0, i32 12
  %24 = load ptr, ptr %23, align 8, !tbaa !320
  %25 = icmp ne ptr %24, null
  br i1 %25, label %26, label %31

26:                                               ; preds = %21
  %27 = load ptr, ptr %5, align 8, !tbaa !19
  %28 = getelementptr inbounds nuw %"struct.duckdb_miniz::mz_zip_archive", ptr %27, i32 0, i32 3
  %29 = load i32, ptr %28, align 4, !tbaa !235
  %30 = icmp ne i32 %29, 0
  br i1 %30, label %31, label %34

31:                                               ; preds = %26, %21, %16, %3
  %32 = load ptr, ptr %5, align 8, !tbaa !19
  %33 = call noundef i32 @_ZN12duckdb_minizL16mz_zip_set_errorEPNS_14mz_zip_archiveENS_12mz_zip_errorE(ptr noundef %32, i32 noundef 24)
  store i32 %33, ptr %4, align 4
  store i32 1, ptr %9, align 4
  br label %144

34:                                               ; preds = %26
  %35 = load i32, ptr %7, align 4, !tbaa !10
  %36 = and i32 %35, 32768
  %37 = icmp ne i32 %36, 0
  br i1 %37, label %38, label %47

38:                                               ; preds = %34
  %39 = load ptr, ptr %5, align 8, !tbaa !19
  %40 = getelementptr inbounds nuw %"struct.duckdb_miniz::mz_zip_archive", ptr %39, i32 0, i32 11
  %41 = load ptr, ptr %40, align 8, !tbaa !239
  %42 = icmp ne ptr %41, null
  br i1 %42, label %46, label %43

43:                                               ; preds = %38
  %44 = load ptr, ptr %5, align 8, !tbaa !19
  %45 = call noundef i32 @_ZN12duckdb_minizL16mz_zip_set_errorEPNS_14mz_zip_archiveENS_12mz_zip_errorE(ptr noundef %44, i32 noundef 24)
  store i32 %45, ptr %4, align 4
  store i32 1, ptr %9, align 4
  br label %144

46:                                               ; preds = %38
  br label %47

47:                                               ; preds = %46, %34
  %48 = load ptr, ptr %5, align 8, !tbaa !19
  %49 = getelementptr inbounds nuw %"struct.duckdb_miniz::mz_zip_archive", ptr %48, i32 0, i32 6
  %50 = load i64, ptr %49, align 8, !tbaa !321
  %51 = icmp ne i64 %50, 0
  br i1 %51, label %52, label %66

52:                                               ; preds = %47
  %53 = load ptr, ptr %5, align 8, !tbaa !19
  %54 = getelementptr inbounds nuw %"struct.duckdb_miniz::mz_zip_archive", ptr %53, i32 0, i32 6
  %55 = load i64, ptr %54, align 8, !tbaa !321
  %56 = load ptr, ptr %5, align 8, !tbaa !19
  %57 = getelementptr inbounds nuw %"struct.duckdb_miniz::mz_zip_archive", ptr %56, i32 0, i32 6
  %58 = load i64, ptr %57, align 8, !tbaa !321
  %59 = sub i64 %58, 1
  %60 = and i64 %55, %59
  %61 = icmp ne i64 %60, 0
  br i1 %61, label %62, label %65

62:                                               ; preds = %52
  %63 = load ptr, ptr %5, align 8, !tbaa !19
  %64 = call noundef i32 @_ZN12duckdb_minizL16mz_zip_set_errorEPNS_14mz_zip_archiveENS_12mz_zip_errorE(ptr noundef %63, i32 noundef 24)
  store i32 %64, ptr %4, align 4
  store i32 1, ptr %9, align 4
  br label %144

65:                                               ; preds = %52
  br label %66

66:                                               ; preds = %65, %47
  %67 = load ptr, ptr %5, align 8, !tbaa !19
  %68 = getelementptr inbounds nuw %"struct.duckdb_miniz::mz_zip_archive", ptr %67, i32 0, i32 7
  %69 = load ptr, ptr %68, align 8, !tbaa !233
  %70 = icmp ne ptr %69, null
  br i1 %70, label %74, label %71

71:                                               ; preds = %66
  %72 = load ptr, ptr %5, align 8, !tbaa !19
  %73 = getelementptr inbounds nuw %"struct.duckdb_miniz::mz_zip_archive", ptr %72, i32 0, i32 7
  store ptr @_ZN12duckdb_miniz20miniz_def_alloc_funcEPvmm, ptr %73, align 8, !tbaa !233
  br label %74

74:                                               ; preds = %71, %66
  %75 = load ptr, ptr %5, align 8, !tbaa !19
  %76 = getelementptr inbounds nuw %"struct.duckdb_miniz::mz_zip_archive", ptr %75, i32 0, i32 8
  %77 = load ptr, ptr %76, align 8, !tbaa !234
  %78 = icmp ne ptr %77, null
  br i1 %78, label %82, label %79

79:                                               ; preds = %74
  %80 = load ptr, ptr %5, align 8, !tbaa !19
  %81 = getelementptr inbounds nuw %"struct.duckdb_miniz::mz_zip_archive", ptr %80, i32 0, i32 8
  store ptr @_ZN12duckdb_miniz19miniz_def_free_funcEPvS0_, ptr %81, align 8, !tbaa !234
  br label %82

82:                                               ; preds = %79, %74
  %83 = load ptr, ptr %5, align 8, !tbaa !19
  %84 = getelementptr inbounds nuw %"struct.duckdb_miniz::mz_zip_archive", ptr %83, i32 0, i32 9
  %85 = load ptr, ptr %84, align 8, !tbaa !243
  %86 = icmp ne ptr %85, null
  br i1 %86, label %90, label %87

87:                                               ; preds = %82
  %88 = load ptr, ptr %5, align 8, !tbaa !19
  %89 = getelementptr inbounds nuw %"struct.duckdb_miniz::mz_zip_archive", ptr %88, i32 0, i32 9
  store ptr @_ZN12duckdb_miniz22miniz_def_realloc_funcEPvS0_mm, ptr %89, align 8, !tbaa !243
  br label %90

90:                                               ; preds = %87, %82
  %91 = load i64, ptr %6, align 8, !tbaa !3
  %92 = load ptr, ptr %5, align 8, !tbaa !19
  %93 = getelementptr inbounds nuw %"struct.duckdb_miniz::mz_zip_archive", ptr %92, i32 0, i32 0
  store i64 %91, ptr %93, align 8, !tbaa !241
  %94 = load ptr, ptr %5, align 8, !tbaa !19
  %95 = getelementptr inbounds nuw %"struct.duckdb_miniz::mz_zip_archive", ptr %94, i32 0, i32 1
  store i64 0, ptr %95, align 8, !tbaa !244
  %96 = load ptr, ptr %5, align 8, !tbaa !19
  %97 = getelementptr inbounds nuw %"struct.duckdb_miniz::mz_zip_archive", ptr %96, i32 0, i32 2
  store i32 0, ptr %97, align 8, !tbaa !245
  %98 = load ptr, ptr %5, align 8, !tbaa !19
  %99 = getelementptr inbounds nuw %"struct.duckdb_miniz::mz_zip_archive", ptr %98, i32 0, i32 7
  %100 = load ptr, ptr %99, align 8, !tbaa !233
  %101 = load ptr, ptr %5, align 8, !tbaa !19
  %102 = getelementptr inbounds nuw %"struct.duckdb_miniz::mz_zip_archive", ptr %101, i32 0, i32 10
  %103 = load ptr, ptr %102, align 8, !tbaa !238
  %104 = call noundef ptr %100(ptr noundef %103, i64 noundef 1, i64 noundef 152)
  %105 = load ptr, ptr %5, align 8, !tbaa !19
  %106 = getelementptr inbounds nuw %"struct.duckdb_miniz::mz_zip_archive", ptr %105, i32 0, i32 15
  store ptr %104, ptr %106, align 8, !tbaa !227
  %107 = icmp eq ptr null, %104
  br i1 %107, label %108, label %111

108:                                              ; preds = %90
  %109 = load ptr, ptr %5, align 8, !tbaa !19
  %110 = call noundef i32 @_ZN12duckdb_minizL16mz_zip_set_errorEPNS_14mz_zip_archiveENS_12mz_zip_errorE(ptr noundef %109, i32 noundef 16)
  store i32 %110, ptr %4, align 4
  store i32 1, ptr %9, align 4
  br label %144

111:                                              ; preds = %90
  %112 = load ptr, ptr %5, align 8, !tbaa !19
  %113 = getelementptr inbounds nuw %"struct.duckdb_miniz::mz_zip_archive", ptr %112, i32 0, i32 15
  %114 = load ptr, ptr %113, align 8, !tbaa !227
  call void @llvm.memset.p0.i64(ptr align 8 %114, i8 0, i64 152, i1 false)
  %115 = load ptr, ptr %5, align 8, !tbaa !19
  %116 = getelementptr inbounds nuw %"struct.duckdb_miniz::mz_zip_archive", ptr %115, i32 0, i32 15
  %117 = load ptr, ptr %116, align 8, !tbaa !227
  %118 = getelementptr inbounds nuw %"struct.duckdb_miniz::mz_zip_internal_state_tag", ptr %117, i32 0, i32 0
  %119 = getelementptr inbounds nuw %"struct.duckdb_miniz::mz_zip_array", ptr %118, i32 0, i32 3
  store i32 1, ptr %119, align 8, !tbaa !246
  %120 = load ptr, ptr %5, align 8, !tbaa !19
  %121 = getelementptr inbounds nuw %"struct.duckdb_miniz::mz_zip_archive", ptr %120, i32 0, i32 15
  %122 = load ptr, ptr %121, align 8, !tbaa !227
  %123 = getelementptr inbounds nuw %"struct.duckdb_miniz::mz_zip_internal_state_tag", ptr %122, i32 0, i32 1
  %124 = getelementptr inbounds nuw %"struct.duckdb_miniz::mz_zip_array", ptr %123, i32 0, i32 3
  store i32 4, ptr %124, align 8, !tbaa !249
  %125 = load ptr, ptr %5, align 8, !tbaa !19
  %126 = getelementptr inbounds nuw %"struct.duckdb_miniz::mz_zip_archive", ptr %125, i32 0, i32 15
  %127 = load ptr, ptr %126, align 8, !tbaa !227
  %128 = getelementptr inbounds nuw %"struct.duckdb_miniz::mz_zip_internal_state_tag", ptr %127, i32 0, i32 2
  %129 = getelementptr inbounds nuw %"struct.duckdb_miniz::mz_zip_array", ptr %128, i32 0, i32 3
  store i32 4, ptr %129, align 8, !tbaa !250
  %130 = load i32, ptr %8, align 4, !tbaa !10
  %131 = load ptr, ptr %5, align 8, !tbaa !19
  %132 = getelementptr inbounds nuw %"struct.duckdb_miniz::mz_zip_archive", ptr %131, i32 0, i32 15
  %133 = load ptr, ptr %132, align 8, !tbaa !227
  %134 = getelementptr inbounds nuw %"struct.duckdb_miniz::mz_zip_internal_state_tag", ptr %133, i32 0, i32 4
  store i32 %130, ptr %134, align 4, !tbaa !252
  %135 = load i32, ptr %8, align 4, !tbaa !10
  %136 = load ptr, ptr %5, align 8, !tbaa !19
  %137 = getelementptr inbounds nuw %"struct.duckdb_miniz::mz_zip_archive", ptr %136, i32 0, i32 15
  %138 = load ptr, ptr %137, align 8, !tbaa !227
  %139 = getelementptr inbounds nuw %"struct.duckdb_miniz::mz_zip_internal_state_tag", ptr %138, i32 0, i32 5
  store i32 %135, ptr %139, align 8, !tbaa !253
  %140 = load ptr, ptr %5, align 8, !tbaa !19
  %141 = getelementptr inbounds nuw %"struct.duckdb_miniz::mz_zip_archive", ptr %140, i32 0, i32 4
  store i32 1, ptr %141, align 8, !tbaa !240
  %142 = load ptr, ptr %5, align 8, !tbaa !19
  %143 = getelementptr inbounds nuw %"struct.duckdb_miniz::mz_zip_archive", ptr %142, i32 0, i32 3
  store i32 2, ptr %143, align 4, !tbaa !235
  store i32 1, ptr %4, align 4
  store i32 1, ptr %9, align 4
  br label %144

144:                                              ; preds = %111, %108, %62, %43, %31
  call void @llvm.lifetime.end.p0(i64 4, ptr %8) #11
  %145 = load i32, ptr %4, align 4
  ret i32 %145
}

; Function Attrs: mustprogress uwtable
define noundef i32 @_ZN12duckdb_miniz18mz_zip_writer_initEPNS_14mz_zip_archiveEm(ptr noundef %0, i64 noundef %1) #5 {
  %3 = alloca ptr, align 8
  %4 = alloca i64, align 8
  store ptr %0, ptr %3, align 8, !tbaa !19
  store i64 %1, ptr %4, align 8, !tbaa !3
  %5 = load ptr, ptr %3, align 8, !tbaa !19
  %6 = load i64, ptr %4, align 8, !tbaa !3
  %7 = call noundef i32 @_ZN12duckdb_miniz21mz_zip_writer_init_v2EPNS_14mz_zip_archiveEmj(ptr noundef %5, i64 noundef %6, i32 noundef 0)
  ret i32 %7
}