; Function Attrs: mustprogress uwtable
define noundef range(i32 0, 2) i32 @_ZN12duckdb_miniz18mz_zip_writer_initEPNS_14mz_zip_archiveEm(ptr noundef captures(address_is_null) %0, i64 noundef %1) local_unnamed_addr #8 {
  %.not.i = icmp eq ptr %0, null
  br i1 %.not.i, label %_ZN12duckdb_miniz21mz_zip_writer_init_v2EPNS_14mz_zip_archiveEmj.exit, label %3

3:                                                ; preds = %2
  %4 = getelementptr inbounds nuw i8, ptr %0, i64 104
  %5 = load ptr, ptr %4, align 8, !tbaa !204
  %.not40.i = icmp eq ptr %5, null
  br i1 %.not40.i, label %6, label %12

6:                                                ; preds = %3
  %7 = getelementptr inbounds nuw i8, ptr %0, i64 80
  %8 = load ptr, ptr %7, align 8, !tbaa !294
  %.not41.i = icmp eq ptr %8, null
  br i1 %.not41.i, label %12, label %9

9:                                                ; preds = %6
  %10 = getelementptr inbounds nuw i8, ptr %0, i64 20
  %11 = load i32, ptr %10, align 4, !tbaa !212
  %.not42.i = icmp eq i32 %11, 0
  br i1 %.not42.i, label %14, label %12

12:                                               ; preds = %9, %6, %3
  %13 = getelementptr inbounds nuw i8, ptr %0, i64 28
  store i32 24, ptr %13, align 4, !tbaa !213
  br label %_ZN12duckdb_miniz21mz_zip_writer_init_v2EPNS_14mz_zip_archiveEmj.exit

14:                                               ; preds = %9
  %15 = getelementptr inbounds nuw i8, ptr %0, i64 32
  %16 = load i64, ptr %15, align 8, !tbaa !295
  %17 = tail call range(i64 0, 65) i64 @llvm.ctpop.i64(i64 %16)
  %.not46.i = icmp samesign ult i64 %17, 2
  br i1 %.not46.i, label %19, label %_ZN12duckdb_minizL16mz_zip_set_errorEPNS_14mz_zip_archiveENS_12mz_zip_errorE.exit51.i

_ZN12duckdb_minizL16mz_zip_set_errorEPNS_14mz_zip_archiveENS_12mz_zip_errorE.exit51.i: ; preds = %14
  %18 = getelementptr inbounds nuw i8, ptr %0, i64 28
  store i32 24, ptr %18, align 4, !tbaa !213
  br label %_ZN12duckdb_miniz21mz_zip_writer_init_v2EPNS_14mz_zip_archiveEmj.exit

19:                                               ; preds = %14
  %20 = getelementptr inbounds nuw i8, ptr %0, i64 40
  %21 = load ptr, ptr %20, align 8, !tbaa !210
  %.not47.i = icmp eq ptr %21, null
  br i1 %.not47.i, label %22, label %23

22:                                               ; preds = %19
  store ptr @_ZN12duckdb_miniz20miniz_def_alloc_funcEPvmm, ptr %20, align 8, !tbaa !210
  br label %23

23:                                               ; preds = %22, %19
  %24 = phi ptr [ @_ZN12duckdb_miniz20miniz_def_alloc_funcEPvmm, %22 ], [ %21, %19 ]
  %25 = getelementptr inbounds nuw i8, ptr %0, i64 48
  %26 = load ptr, ptr %25, align 8, !tbaa !211
  %.not48.i = icmp eq ptr %26, null
  br i1 %.not48.i, label %27, label %28

27:                                               ; preds = %23
  store ptr @_ZN12duckdb_miniz19miniz_def_free_funcEPvS0_, ptr %25, align 8, !tbaa !211
  br label %28

28:                                               ; preds = %27, %23
  %29 = getelementptr inbounds nuw i8, ptr %0, i64 56
  %30 = load ptr, ptr %29, align 8, !tbaa !218
  %.not49.i = icmp eq ptr %30, null
  br i1 %.not49.i, label %31, label %32

31:                                               ; preds = %28
  store ptr @_ZN12duckdb_miniz22miniz_def_realloc_funcEPvS0_mm, ptr %29, align 8, !tbaa !218
  br label %32

32:                                               ; preds = %31, %28
  store i64 %1, ptr %0, align 8, !tbaa !227
  %33 = getelementptr inbounds nuw i8, ptr %0, i64 8
  store i64 0, ptr %33, align 8, !tbaa !231
  %34 = getelementptr inbounds nuw i8, ptr %0, i64 16
  store i32 0, ptr %34, align 8, !tbaa !230
  %35 = getelementptr inbounds nuw i8, ptr %0, i64 64
  %36 = load ptr, ptr %35, align 8, !tbaa !214
  %37 = tail call noundef ptr %24(ptr noundef %36, i64 noundef 1, i64 noundef 152)
  store ptr %37, ptr %4, align 8, !tbaa !204
  %38 = icmp eq ptr %37, null
  br i1 %38, label %_ZN12duckdb_minizL16mz_zip_set_errorEPNS_14mz_zip_archiveENS_12mz_zip_errorE.exit.i, label %40

_ZN12duckdb_minizL16mz_zip_set_errorEPNS_14mz_zip_archiveENS_12mz_zip_errorE.exit.i: ; preds = %32
  %39 = getelementptr inbounds nuw i8, ptr %0, i64 28
  store i32 16, ptr %39, align 4, !tbaa !213
  br label %_ZN12duckdb_miniz21mz_zip_writer_init_v2EPNS_14mz_zip_archiveEmj.exit

40:                                               ; preds = %32
  tail call void @llvm.memset.p0.i64(ptr noundef nonnull align 8 dereferenceable(152) %37, i8 0, i64 152, i1 false)
  %41 = load ptr, ptr %4, align 8, !tbaa !204
  %42 = getelementptr inbounds nuw i8, ptr %41, i64 24
  store i32 1, ptr %42, align 8, !tbaa !219
  %43 = getelementptr inbounds nuw i8, ptr %41, i64 56
  store i32 4, ptr %43, align 8, !tbaa !221
  %44 = getelementptr inbounds nuw i8, ptr %41, i64 88
  store i32 4, ptr %44, align 8, !tbaa !222
  %45 = getelementptr inbounds nuw i8, ptr %41, i64 100
  store i32 0, ptr %45, align 4, !tbaa !224
  %46 = getelementptr inbounds nuw i8, ptr %41, i64 104
  store i32 0, ptr %46, align 8, !tbaa !225
  %47 = getelementptr inbounds nuw i8, ptr %0, i64 24
  store i32 1, ptr %47, align 8, !tbaa !226
  store i32 2, ptr %10, align 4, !tbaa !212
  br label %_ZN12duckdb_miniz21mz_zip_writer_init_v2EPNS_14mz_zip_archiveEmj.exit

_ZN12duckdb_miniz21mz_zip_writer_init_v2EPNS_14mz_zip_archiveEmj.exit: ; preds = %2, %12, %_ZN12duckdb_minizL16mz_zip_set_errorEPNS_14mz_zip_archiveENS_12mz_zip_errorE.exit51.i, %_ZN12duckdb_minizL16mz_zip_set_errorEPNS_14mz_zip_archiveENS_12mz_zip_errorE.exit.i, %40
  %.0.i = phi i32 [ 0, %_ZN12duckdb_minizL16mz_zip_set_errorEPNS_14mz_zip_archiveENS_12mz_zip_errorE.exit51.i ], [ 0, %_ZN12duckdb_minizL16mz_zip_set_errorEPNS_14mz_zip_archiveENS_12mz_zip_errorE.exit.i ], [ 1, %40 ], [ 0, %2 ], [ 0, %12 ]
  ret i32 %.0.i
}